target datalayout = "e-m:e-p270:32:32-p271:32:32-p272:64:64-i64:64-i128:128-f80:128-n8:16:32:64-S128"
target triple = "x86_64-pc-linux-gnu"

%struct._Node = type { %union.anon }
%union.anon = type { %struct.StrNode }
%struct.StrNode = type { %struct.NodeBase, ptr, ptr, i32, i32, [24 x i8] }
%struct.NodeBase = type { i32 }
%struct.ConsAltNode = type { %struct.NodeBase, ptr, ptr }
%struct.CClassNode = type { %struct.NodeBase, i32, [8 x i32], ptr }
%struct.QtfrNode = type { %struct.NodeBase, i32, ptr, i32, i32, i32, i32, ptr, ptr, i32 }
%struct.EncloseNode = type { %struct.NodeBase, i32, i32, i32, i32, i32, ptr, i64, i64, i32, i32 }
%struct.BRefNode = type { %struct.NodeBase, i32, i32, [6 x i32], ptr, i32 }
%struct.AnchorNode = type { %struct.NodeBase, i32, ptr, i32, i32 }
%struct._BBuf = type { ptr, i32, i32 }

; Function Attrs: nounwind sspstrong uwtable
define internal void @bbuf_free(ptr noundef %0) #0 {
  %2 = alloca ptr, align 8
  store ptr %0, ptr %2, align 8, !tbaa !73
  %3 = load ptr, ptr %2, align 8, !tbaa !73
  %4 = icmp ne ptr %3, null
  br i1 %4, label %5, label %10

5:                                                ; preds = %1
  %6 = load ptr, ptr %2, align 8, !tbaa !73
  %7 = getelementptr inbounds nuw %struct._BBuf, ptr %6, i32 0, i32 0
  %8 = load ptr, ptr %7, align 8, !tbaa !74
  call void @free(ptr noundef %8) #13
  %9 = load ptr, ptr %2, align 8, !tbaa !73
  call void @free(ptr noundef %9) #13
  br label %10

10:                                               ; preds = %5, %1
  ret void
}

; Function Attrs: nounwind sspstrong uwtable
define dso_local void @onig_node_free(ptr noundef %0) #0 {
  %2 = alloca ptr, align 8
  %3 = alloca ptr, align 8
  %4 = alloca ptr, align 8
  store ptr %0, ptr %2, align 8, !tbaa !68
  br label %5

5:                                                ; preds = %42, %1
  %6 = load ptr, ptr %2, align 8, !tbaa !68
  %7 = icmp eq ptr %6, null
  br i1 %7, label %8, label %9

8:                                                ; preds = %5
  br label %81

9:                                                ; preds = %5
  %10 = load ptr, ptr %2, align 8, !tbaa !68
  %11 = getelementptr inbounds nuw %struct._Node, ptr %10, i32 0, i32 0
  %12 = getelementptr inbounds nuw %struct.NodeBase, ptr %11, i32 0, i32 0
  %13 = load i32, ptr %12, align 8, !tbaa !17
  switch i32 %13, label %79 [
    i32 0, label %14
    i32 8, label %42
    i32 9, label %42
    i32 1, label %53
    i32 5, label %59
    i32 6, label %64
    i32 4, label %69
    i32 7, label %74
  ]

14:                                               ; preds = %9
  %15 = load ptr, ptr %2, align 8, !tbaa !68
  %16 = getelementptr inbounds nuw %struct._Node, ptr %15, i32 0, i32 0
  %17 = getelementptr inbounds nuw %struct.StrNode, ptr %16, i32 0, i32 4
  %18 = load i32, ptr %17, align 4, !tbaa !17
  %19 = icmp ne i32 %18, 0
  br i1 %19, label %20, label %41

20:                                               ; preds = %14
  %21 = load ptr, ptr %2, align 8, !tbaa !68
  %22 = getelementptr inbounds nuw %struct._Node, ptr %21, i32 0, i32 0
  %23 = getelementptr inbounds nuw %struct.StrNode, ptr %22, i32 0, i32 1
  %24 = load ptr, ptr %23, align 8, !tbaa !17
  %25 = icmp ne ptr %24, null
  br i1 %25, label %26, label %41

26:                                               ; preds = %20
  %27 = load ptr, ptr %2, align 8, !tbaa !68
  %28 = getelementptr inbounds nuw %struct._Node, ptr %27, i32 0, i32 0
  %29 = getelementptr inbounds nuw %struct.StrNode, ptr %28, i32 0, i32 1
  %30 = load ptr, ptr %29, align 8, !tbaa !17
  %31 = load ptr, ptr %2, align 8, !tbaa !68
  %32 = getelementptr inbounds nuw %struct._Node, ptr %31, i32 0, i32 0
  %33 = getelementptr inbounds nuw %struct.StrNode, ptr %32, i32 0, i32 5
  %34 = getelementptr inbounds [24 x i8], ptr %33, i64 0, i64 0
  %35 = icmp ne ptr %30, %34
  br i1 %35, label %36, label %41

36:                                               ; preds = %26
  %37 = load ptr, ptr %2, align 8, !tbaa !68
  %38 = getelementptr inbounds nuw %struct._Node, ptr %37, i32 0, i32 0
  %39 = getelementptr inbounds nuw %struct.StrNode, ptr %38, i32 0, i32 1
  %40 = load ptr, ptr %39, align 8, !tbaa !17
  call void @free(ptr noundef %40) #13
  br label %41

41:                                               ; preds = %36, %26, %20, %14
  br label %79

42:                                               ; preds = %9, %9
  %43 = load ptr, ptr %2, align 8, !tbaa !68
  %44 = getelementptr inbounds nuw %struct._Node, ptr %43, i32 0, i32 0
  %45 = getelementptr inbounds nuw %struct.ConsAltNode, ptr %44, i32 0, i32 1
  %46 = load ptr, ptr %45, align 8, !tbaa !17
  call void @onig_node_free(ptr noundef %46)
  call void @llvm.lifetime.start.p0(i64 8, ptr %3) #13
  %47 = load ptr, ptr %2, align 8, !tbaa !68
  %48 = getelementptr inbounds nuw %struct._Node, ptr %47, i32 0, i32 0
  %49 = getelementptr inbounds nuw %struct.ConsAltNode, ptr %48, i32 0, i32 2
  %50 = load ptr, ptr %49, align 8, !tbaa !17
  store ptr %50, ptr %3, align 8, !tbaa !68
  %51 = load ptr, ptr %2, align 8, !tbaa !68
  call void @free(ptr noundef %51) #13
  %52 = load ptr, ptr %3, align 8, !tbaa !68
  store ptr %52, ptr %2, align 8, !tbaa !68
  call void @llvm.lifetime.end.p0(i64 8, ptr %3) #13
  br label %5

53:                                               ; preds = %9
  call void @llvm.lifetime.start.p0(i64 8, ptr %4) #13
  %54 = load ptr, ptr %2, align 8, !tbaa !68
  %55 = getelementptr inbounds nuw %struct._Node, ptr %54, i32 0, i32 0
  store ptr %55, ptr %4, align 8, !tbaa !12
  %56 = load ptr, ptr %4, align 8, !tbaa !12
  %57 = getelementptr inbounds nuw %struct.CClassNode, ptr %56, i32 0, i32 3
  %58 = load ptr, ptr %57, align 8, !tbaa !70
  call void @bbuf_free(ptr noundef %58)
  call void @llvm.lifetime.end.p0(i64 8, ptr %4) #13
  br label %79

59:                                               ; preds = %9
  %60 = load ptr, ptr %2, align 8, !tbaa !68
  %61 = getelementptr inbounds nuw %struct._Node, ptr %60, i32 0, i32 0
  %62 = getelementptr inbounds nuw %struct.QtfrNode, ptr %61, i32 0, i32 2
  %63 = load ptr, ptr %62, align 8, !tbaa !17
  call void @onig_node_free(ptr noundef %63)
  br label %79

64:                                               ; preds = %9
  %65 = load ptr, ptr %2, align 8, !tbaa !68
  %66 = getelementptr inbounds nuw %struct._Node, ptr %65, i32 0, i32 0
  %67 = getelementptr inbounds nuw %struct.EncloseNode, ptr %66, i32 0, i32 6
  %68 = load ptr, ptr %67, align 8, !tbaa !17
  call void @onig_node_free(ptr noundef %68)
  br label %79

69:                                               ; preds = %9
  %70 = load ptr, ptr %2, align 8, !tbaa !68
  %71 = getelementptr inbounds nuw %struct._Node, ptr %70, i32 0, i32 0
  %72 = getelementptr inbounds nuw %struct.BRefNode, ptr %71, i32 0, i32 4
  %73 = load ptr, ptr %72, align 8, !tbaa !17
  call void @free(ptr noundef %73) #13
  br label %79

74:                                               ; preds = %9
  %75 = load ptr, ptr %2, align 8, !tbaa !68
  %76 = getelementptr inbounds nuw %struct._Node, ptr %75, i32 0, i32 0
  %77 = getelementptr inbounds nuw %struct.AnchorNode, ptr %76, i32 0, i32 2
  %78 = load ptr, ptr %77, align 8, !tbaa !17
  call void @onig_node_free(ptr noundef %78)
  br label %79

79:                                               ; preds = %9, %74, %69, %64, %59, %53, %41
  %80 = load ptr, ptr %2, align 8, !tbaa !68
  call void @free(ptr noundef %80) #13
  br label %81

81:                                               ; preds = %79, %8
  ret void
}