; Function Attrs: nounwind sspstrong uwtable
define dso_local void @onig_node_free(ptr noundef captures(address) %0) local_unnamed_addr #5 {
  %2 = icmp eq ptr %0, null
  br i1 %2, label %.loopexit, label %.lr.ph

.lr.ph:                                           ; preds = %1, %12
  %.029 = phi ptr [ %16, %12 ], [ %0, %1 ]
  %3 = load i32, ptr %.029, align 8, !tbaa !13
  switch i32 %3, label %bbuf_free.exit [
    i32 0, label %4
    i32 8, label %12
    i32 9, label %12
    i32 1, label %18
    i32 5, label %23
    i32 6, label %26
    i32 4, label %29
    i32 7, label %32
  ]

4:                                                ; preds = %.lr.ph
  %5 = getelementptr inbounds nuw i8, ptr %.029, i64 28
  %6 = load i32, ptr %5, align 4, !tbaa !13
  %.not = icmp eq i32 %6, 0
  br i1 %.not, label %bbuf_free.exit, label %7

7:                                                ; preds = %4
  %8 = getelementptr inbounds nuw i8, ptr %.029, i64 8
  %9 = load ptr, ptr %8, align 8, !tbaa !13
  %.not19 = icmp eq ptr %9, null
  %10 = getelementptr inbounds nuw i8, ptr %.029, i64 32
  %.not20 = icmp eq ptr %9, %10
  %or.cond = select i1 %.not19, i1 true, i1 %.not20
  br i1 %or.cond, label %bbuf_free.exit, label %11

11:                                               ; preds = %7
  tail call void @free(ptr noundef nonnull %9) #25
  br label %bbuf_free.exit

12:                                               ; preds = %.lr.ph, %.lr.ph
  %13 = getelementptr inbounds nuw i8, ptr %.029, i64 8
  %14 = load ptr, ptr %13, align 8, !tbaa !13
  tail call void @onig_node_free(ptr noundef %14)
  %15 = getelementptr inbounds nuw i8, ptr %.029, i64 16
  %16 = load ptr, ptr %15, align 8, !tbaa !13
  tail call void @free(ptr noundef nonnull %.029) #25
  %17 = icmp eq ptr %16, null
  br i1 %17, label %.loopexit, label %.lr.ph

18:                                               ; preds = %.lr.ph
  %19 = getelementptr inbounds nuw i8, ptr %.029, i64 40
  %20 = load ptr, ptr %19, align 8, !tbaa !61
  %.not.i = icmp eq ptr %20, null
  br i1 %.not.i, label %bbuf_free.exit, label %21

21:                                               ; preds = %18
  %22 = load ptr, ptr %20, align 8, !tbaa !64
  tail call void @free(ptr noundef %22) #25
  tail call void @free(ptr noundef nonnull %20) #25
  br label %bbuf_free.exit

23:                                               ; preds = %.lr.ph
  %24 = getelementptr inbounds nuw i8, ptr %.029, i64 8
  %25 = load ptr, ptr %24, align 8, !tbaa !13
  tail call void @onig_node_free(ptr noundef %25)
  br label %bbuf_free.exit

26:                                               ; preds = %.lr.ph
  %27 = getelementptr inbounds nuw i8, ptr %.029, i64 24
  %28 = load ptr, ptr %27, align 8, !tbaa !13
  tail call void @onig_node_free(ptr noundef %28)
  br label %bbuf_free.exit

29:                                               ; preds = %.lr.ph
  %30 = getelementptr inbounds nuw i8, ptr %.029, i64 40
  %31 = load ptr, ptr %30, align 8, !tbaa !13
  tail call void @free(ptr noundef %31) #25
  br label %bbuf_free.exit

32:                                               ; preds = %.lr.ph
  %33 = getelementptr inbounds nuw i8, ptr %.029, i64 8
  %34 = load ptr, ptr %33, align 8, !tbaa !13
  tail call void @onig_node_free(ptr noundef %34)
  br label %bbuf_free.exit

bbuf_free.exit:                                   ; preds = %.lr.ph, %21, %18, %4, %7, %11, %32, %29, %26, %23
  tail call void @free(ptr noundef nonnull %.029) #25
  br label %.loopexit

.loopexit:                                        ; preds = %12, %1, %bbuf_free.exit
  ret void
}